target datalayout = "e-m:e-p270:32:32-p271:32:32-p272:64:64-i64:64-i128:128-f80:128-n8:16:32:64-S128"
target triple = "x86_64-unknown-linux-gnu"

%"class.icu_75::UObject" = type { ptr }
%"class.icu_75::UnicodeString" = type { %"class.icu_75::Replaceable", %"union.icu_75::UnicodeString::StackBufferOrFields" }
%"class.icu_75::Replaceable" = type { %"class.icu_75::UObject" }
%"union.icu_75::UnicodeString::StackBufferOrFields" = type { %struct.anon.0, [32 x i8] }
%struct.anon.0 = type { i16, i32, i32, ptr }
%"class.icu_75::Char16Ptr" = type { ptr }
%struct.anon = type { i16, [27 x i16] }

@_ZTIN6icu_7510DateFormatE = external constant ptr
@_ZTIN6icu_7516SimpleDateFormatE = external constant ptr
@_ZTIN6icu_7518RelativeDateFormatE = external constant ptr
@_ZTVN6icu_7513UnicodeStringE = external unnamed_addr constant { [13 x ptr] }, align 8
@_ZTVN6icu_7511ReplaceableE = external unnamed_addr constant { [13 x ptr] }, align 8
@_ZTVN6icu_757UObjectE = external unnamed_addr constant { [5 x ptr] }, align 8

; Function Attrs: mustprogress nounwind uwtable
define linkonce_odr void @_ZN6icu_757UObjectC2Ev(ptr noundef nonnull align 8 dereferenceable(8) %this) unnamed_addr #0 comdat align 2 {
entry:
  %this.addr = alloca ptr, align 8
  store ptr %this, ptr %this.addr, align 8
  %this1 = load ptr, ptr %this.addr, align 8
  store ptr getelementptr inbounds ({ [5 x ptr] }, ptr @_ZTVN6icu_757UObjectE, i32 0, i32 0, i32 2), ptr %this1, align 8
  ret void
}

; Function Attrs: mustprogress nounwind uwtable
define linkonce_odr void @_ZN6icu_7511ReplaceableC2Ev(ptr noundef nonnull align 8 dereferenceable(8) %this) unnamed_addr #0 comdat align 2 {
entry:
  %this.addr = alloca ptr, align 8
  store ptr %this, ptr %this.addr, align 8
  %this1 = load ptr, ptr %this.addr, align 8
  call void @_ZN6icu_757UObjectC2Ev(ptr noundef nonnull align 8 dereferenceable(8) %this1) #6
  store ptr getelementptr inbounds ({ [13 x ptr] }, ptr @_ZTVN6icu_7511ReplaceableE, i32 0, i32 0, i32 2), ptr %this1, align 8
  ret void
}

; Function Attrs: mustprogress nounwind uwtable
define linkonce_odr void @_ZN6icu_759Char16PtrD2Ev(ptr noundef nonnull align 8 dereferenceable(8) %this) unnamed_addr #0 comdat align 2 {
entry:
  %this.addr = alloca ptr, align 8
  store ptr %this, ptr %this.addr, align 8
  %this1 = load ptr, ptr %this.addr, align 8
  %p_ = getelementptr inbounds %"class.icu_75::Char16Ptr", ptr %this1, i32 0, i32 0
  %0 = load ptr, ptr %p_, align 8
  call void asm sideeffect "", "rm,~{memory},~{dirflag},~{fpsr},~{flags}"(ptr %0) #6, !srcloc !5
  ret void
}

; Function Attrs: mustprogress nounwind uwtable
define linkonce_odr void @_ZN6icu_759Char16PtrC2EPDs(ptr noundef nonnull align 8 dereferenceable(8) %this, ptr noundef %p) unnamed_addr #0 comdat align 2 {
entry:
  %this.addr = alloca ptr, align 8
  %p.addr = alloca ptr, align 8
  store ptr %this, ptr %this.addr, align 8
  store ptr %p, ptr %p.addr, align 8
  %this1 = load ptr, ptr %this.addr, align 8
  %p_ = getelementptr inbounds %"class.icu_75::Char16Ptr", ptr %this1, i32 0, i32 0
  %0 = load ptr, ptr %p.addr, align 8
  store ptr %0, ptr %p_, align 8
  ret void
}

; Function Attrs: mustprogress uwtable
define linkonce_odr void @_ZN6icu_7513UnicodeStringC2Ev(ptr noundef nonnull align 8 dereferenceable(64) %this) unnamed_addr #1 comdat align 2 {
entry:
  %this.addr = alloca ptr, align 8
  store ptr %this, ptr %this.addr, align 8
  %this1 = load ptr, ptr %this.addr, align 8
  call void @_ZN6icu_7511ReplaceableC2Ev(ptr noundef nonnull align 8 dereferenceable(8) %this1)
  store ptr getelementptr inbounds ({ [13 x ptr] }, ptr @_ZTVN6icu_7513UnicodeStringE, i32 0, i32 0, i32 2), ptr %this1, align 8
  %fUnion2 = getelementptr inbounds %"class.icu_75::UnicodeString", ptr %this1, i32 0, i32 1
  %fLengthAndFlags = getelementptr inbounds %struct.anon, ptr %fUnion2, i32 0, i32 0
  store i16 2, ptr %fLengthAndFlags, align 8
  ret void
}

; Function Attrs: mustprogress nounwind uwtable
define internal noundef signext i8 @_ZL9U_FAILURE10UErrorCode(i32 noundef %code) #0 {
entry:
  %code.addr = alloca i32, align 4
  store i32 %code, ptr %code.addr, align 4
  %0 = load i32, ptr %code.addr, align 4
  %cmp = icmp sgt i32 %0, 0
  %conv = zext i1 %cmp to i8
  ret i8 %conv
}

; Function Attrs: mustprogress uwtable
define i32 @udat_toPattern_75(ptr noundef %fmt, i8 noundef signext %localized, ptr noundef %result, i32 noundef %resultLength, ptr noundef %status) #1 personality ptr @__gxx_personality_v0 {
entry:
  %retval = alloca i32, align 4
  %fmt.addr = alloca ptr, align 8
  %localized.addr = alloca i8, align 1
  %result.addr = alloca ptr, align 8
  %resultLength.addr = alloca i32, align 4
  %status.addr = alloca ptr, align 8
  %res = alloca %"class.icu_75::UnicodeString", align 8
  %exn.slot = alloca ptr, align 8
  %ehselector.slot = alloca i32, align 4
  %df = alloca ptr, align 8
  %sdtfmt = alloca ptr, align 8
  %reldtfmt = alloca ptr, align 8
  %cleanup.dest.slot = alloca i32, align 4
  %agg.tmp = alloca %"class.icu_75::Char16Ptr", align 8
  store ptr %fmt, ptr %fmt.addr, align 8
  store i8 %localized, ptr %localized.addr, align 1
  store ptr %result, ptr %result.addr, align 8
  store i32 %resultLength, ptr %resultLength.addr, align 4
  store ptr %status, ptr %status.addr, align 8
  %0 = load ptr, ptr %status.addr, align 8
  %1 = load i32, ptr %0, align 4
  %call = call noundef signext i8 @_ZL9U_FAILURE10UErrorCode(i32 noundef %1)
  %tobool = icmp ne i8 %call, 0
  br i1 %tobool, label %if.then, label %if.end

if.then:                                          ; preds = %entry
  store i32 -1, ptr %retval, align 4
  br label %return

if.end:                                           ; preds = %entry
  %2 = load ptr, ptr %result.addr, align 8
  %cmp = icmp eq ptr %2, null
  br i1 %cmp, label %cond.true, label %cond.false

cond.true:                                        ; preds = %if.end
  %3 = load i32, ptr %resultLength.addr, align 4
  %cmp1 = icmp ne i32 %3, 0
  br i1 %cmp1, label %if.then3, label %if.end4

cond.false:                                       ; preds = %if.end
  %4 = load i32, ptr %resultLength.addr, align 4
  %cmp2 = icmp slt i32 %4, 0
  br i1 %cmp2, label %if.then3, label %if.end4

if.then3:                                         ; preds = %cond.false, %cond.true
  %5 = load ptr, ptr %status.addr, align 8
  store i32 1, ptr %5, align 4
  store i32 -1, ptr %retval, align 4
  br label %return

if.end4:                                          ; preds = %cond.false, %cond.true
  call void @_ZN6icu_7513UnicodeStringC2Ev(ptr noundef nonnull align 8 dereferenceable(64) %res)
  %6 = load ptr, ptr %result.addr, align 8
  %cmp5 = icmp ne ptr %6, null
  br i1 %cmp5, label %if.then6, label %if.end8

if.then6:                                         ; preds = %if.end4
  %7 = load ptr, ptr %result.addr, align 8
  %8 = load i32, ptr %resultLength.addr, align 4
  %call7 = invoke noundef nonnull align 8 dereferenceable(64) ptr @_ZN6icu_7513UnicodeString5setToEPDsii(ptr noundef nonnull align 8 dereferenceable(64) %res, ptr noundef %7, i32 noundef 0, i32 noundef %8)
          to label %invoke.cont unwind label %lpad

invoke.cont:                                      ; preds = %if.then6
  br label %if.end8

lpad:                                             ; preds = %if.end33, %if.then26, %if.else, %if.then12, %if.then6
  %9 = landingpad { ptr, i32 }
          cleanup
  %10 = extractvalue { ptr, i32 } %9, 0
  store ptr %10, ptr %exn.slot, align 8
  %11 = extractvalue { ptr, i32 } %9, 1
  store i32 %11, ptr %ehselector.slot, align 4
  br label %ehcleanup

if.end8:                                          ; preds = %invoke.cont, %if.end4
  %12 = load ptr, ptr %fmt.addr, align 8
  store ptr %12, ptr %df, align 8
  %13 = load ptr, ptr %df, align 8
  %14 = icmp eq ptr %13, null
  br i1 %14, label %dynamic_cast.null, label %dynamic_cast.notnull

dynamic_cast.notnull:                             ; preds = %if.end8
  %15 = call ptr @__dynamic_cast(ptr %13, ptr @_ZTIN6icu_7510DateFormatE, ptr @_ZTIN6icu_7516SimpleDateFormatE, i64 0) #6
  br label %dynamic_cast.end

dynamic_cast.null:                                ; preds = %if.end8
  br label %dynamic_cast.end

dynamic_cast.end:                                 ; preds = %dynamic_cast.null, %dynamic_cast.notnull
  %16 = phi ptr [ %15, %dynamic_cast.notnull ], [ null, %dynamic_cast.null ]
  store ptr %16, ptr %sdtfmt, align 8
  %17 = load ptr, ptr %sdtfmt, align 8
  %cmp9 = icmp ne ptr %17, null
  br i1 %cmp9, label %if.then10, label %if.else20

if.then10:                                        ; preds = %dynamic_cast.end
  %18 = load i8, ptr %localized.addr, align 1
  %tobool11 = icmp ne i8 %18, 0
  br i1 %tobool11, label %if.then12, label %if.else

if.then12:                                        ; preds = %if.then10
  %19 = load ptr, ptr %sdtfmt, align 8
  %20 = load ptr, ptr %status.addr, align 8
  %vtable = load ptr, ptr %19, align 8
  %vfn = getelementptr inbounds ptr, ptr %vtable, i64 31
  %21 = load ptr, ptr %vfn, align 8
  %call14 = invoke noundef nonnull align 8 dereferenceable(64) ptr %21(ptr noundef nonnull align 8 dereferenceable(832) %19, ptr noundef nonnull align 8 dereferenceable(64) %res, ptr noundef nonnull align 4 dereferenceable(4) %20)
          to label %invoke.cont13 unwind label %lpad

invoke.cont13:                                    ; preds = %if.then12
  br label %if.end19

if.else:                                          ; preds = %if.then10
  %22 = load ptr, ptr %sdtfmt, align 8
  %vtable15 = load ptr, ptr %22, align 8
  %vfn16 = getelementptr inbounds ptr, ptr %vtable15, i64 30
  %23 = load ptr, ptr %vfn16, align 8
  %call18 = invoke noundef nonnull align 8 dereferenceable(64) ptr %23(ptr noundef nonnull align 8 dereferenceable(832) %22, ptr noundef nonnull align 8 dereferenceable(64) %res)
          to label %invoke.cont17 unwind label %lpad

invoke.cont17:                                    ; preds = %if.else
  br label %if.end19

if.end19:                                         ; preds = %invoke.cont17, %invoke.cont13
  br label %if.end33

if.else20:                                        ; preds = %dynamic_cast.end
  %24 = load i8, ptr %localized.addr, align 1
  %tobool21 = icmp ne i8 %24, 0
  br i1 %tobool21, label %if.else31, label %land.lhs.true

land.lhs.true:                                    ; preds = %if.else20
  %25 = load ptr, ptr %df, align 8
  %26 = icmp eq ptr %25, null
  br i1 %26, label %dynamic_cast.null23, label %dynamic_cast.notnull22

dynamic_cast.notnull22:                           ; preds = %land.lhs.true
  %27 = call ptr @__dynamic_cast(ptr %25, ptr @_ZTIN6icu_7510DateFormatE, ptr @_ZTIN6icu_7518RelativeDateFormatE, i64 0) #6
  br label %dynamic_cast.end24

dynamic_cast.null23:                              ; preds = %land.lhs.true
  br label %dynamic_cast.end24

dynamic_cast.end24:                               ; preds = %dynamic_cast.null23, %dynamic_cast.notnull22
  %28 = phi ptr [ %27, %dynamic_cast.notnull22 ], [ null, %dynamic_cast.null23 ]
  store ptr %28, ptr %reldtfmt, align 8
  %cmp25 = icmp ne ptr %28, null
  br i1 %cmp25, label %if.then26, label %if.else31

if.then26:                                        ; preds = %dynamic_cast.end24
  %29 = load ptr, ptr %reldtfmt, align 8
  %30 = load ptr, ptr %status.addr, align 8
  %vtable27 = load ptr, ptr %29, align 8
  %vfn28 = getelementptr inbounds ptr, ptr %vtable27, i64 29
  %31 = load ptr, ptr %vfn28, align 8
  %call30 = invoke noundef nonnull align 8 dereferenceable(64) ptr %31(ptr noundef nonnull align 8 dereferenceable(760) %29, ptr noundef nonnull align 8 dereferenceable(64) %res, ptr noundef nonnull align 4 dereferenceable(4) %30)
          to label %invoke.cont29 unwind label %lpad

invoke.cont29:                                    ; preds = %if.then26
  br label %if.end32

if.else31:                                        ; preds = %dynamic_cast.end24, %if.else20
  %32 = load ptr, ptr %status.addr, align 8
  store i32 1, ptr %32, align 4
  store i32 -1, ptr %retval, align 4
  store i32 1, ptr %cleanup.dest.slot, align 4
  br label %cleanup

if.end32:                                         ; preds = %invoke.cont29
  br label %if.end33

if.end33:                                         ; preds = %if.end32, %if.end19
  %33 = load ptr, ptr %result.addr, align 8
  invoke void @_ZN6icu_759Char16PtrC2EPDs(ptr noundef nonnull align 8 dereferenceable(8) %agg.tmp, ptr noundef %33)
          to label %invoke.cont34 unwind label %lpad

invoke.cont34:                                    ; preds = %if.end33
  %34 = load i32, ptr %resultLength.addr, align 4
  %35 = load ptr, ptr %status.addr, align 8
  %call37 = invoke noundef i32 @_ZNK6icu_7513UnicodeString7extractENS_9Char16PtrEiR10UErrorCode(ptr noundef nonnull align 8 dereferenceable(64) %res, ptr noundef %agg.tmp, i32 noundef %34, ptr noundef nonnull align 4 dereferenceable(4) %35)
          to label %invoke.cont36 unwind label %lpad35

invoke.cont36:                                    ; preds = %invoke.cont34
  store i32 %call37, ptr %retval, align 4
  call void @_ZN6icu_759Char16PtrD2Ev(ptr noundef nonnull align 8 dereferenceable(8) %agg.tmp) #6
  store i32 1, ptr %cleanup.dest.slot, align 4
  br label %cleanup

lpad35:                                           ; preds = %invoke.cont34
  %36 = landingpad { ptr, i32 }
          cleanup
  %37 = extractvalue { ptr, i32 } %36, 0
  store ptr %37, ptr %exn.slot, align 8
  %38 = extractvalue { ptr, i32 } %36, 1
  store i32 %38, ptr %ehselector.slot, align 4
  call void @_ZN6icu_759Char16PtrD2Ev(ptr noundef nonnull align 8 dereferenceable(8) %agg.tmp) #6
  br label %ehcleanup

cleanup:                                          ; preds = %invoke.cont36, %if.else31
  call void @_ZN6icu_7513UnicodeStringD1Ev(ptr noundef nonnull align 8 dereferenceable(64) %res) #6
  br label %return

ehcleanup:                                        ; preds = %lpad35, %lpad
  call void @_ZN6icu_7513UnicodeStringD1Ev(ptr noundef nonnull align 8 dereferenceable(64) %res) #6
  br label %eh.resume

return:                                           ; preds = %cleanup, %if.then3, %if.then
  %39 = load i32, ptr %retval, align 4
  ret i32 %39

eh.resume:                                        ; preds = %ehcleanup
  %exn = load ptr, ptr %exn.slot, align 8
  %sel = load i32, ptr %ehselector.slot, align 4
  %lpad.val = insertvalue { ptr, i32 } poison, ptr %exn, 0
  %lpad.val38 = insertvalue { ptr, i32 } %lpad.val, i32 %sel, 1
  resume { ptr, i32 } %lpad.val38
}