; Function Attrs: mustprogress uwtable
define noundef i32 @udat_toPattern_75(ptr noundef %fmt, i8 noundef signext %localized, ptr noundef %result, i32 noundef %resultLength, ptr noundef %status) local_unnamed_addr #1 personality ptr @__gxx_personality_v0 {
entry:
  %res = alloca %"class.icu_75::UnicodeString", align 8
  %agg.tmp = alloca %"class.icu_75::Char16Ptr", align 8
  %0 = load i32, ptr %status, align 4
  %cmp.i = icmp slt i32 %0, 1
  br i1 %cmp.i, label %if.end, label %return

if.end:                                           ; preds = %entry
  %cmp = icmp eq ptr %result, null
  br i1 %cmp, label %cond.true, label %cond.false

cond.true:                                        ; preds = %if.end
  %cmp1.not = icmp eq i32 %resultLength, 0
  br i1 %cmp1.not, label %if.end4.thread, label %if.then3

if.end4.thread:                                   ; preds = %cond.true
  store ptr getelementptr inbounds ({ [13 x ptr] }, ptr @_ZTVN6icu_7513UnicodeStringE, i64 0, i32 0, i64 2), ptr %res, align 8
  %fUnion2.i18 = getelementptr inbounds i8, ptr %res, i64 8
  store i16 2, ptr %fUnion2.i18, align 8
  br label %if.end8

cond.false:                                       ; preds = %if.end
  %cmp2 = icmp slt i32 %resultLength, 0
  br i1 %cmp2, label %if.then3, label %if.then6

if.then3:                                         ; preds = %cond.false, %cond.true
  store i32 1, ptr %status, align 4
  br label %return

if.then6:                                         ; preds = %cond.false
  store ptr getelementptr inbounds ({ [13 x ptr] }, ptr @_ZTVN6icu_7513UnicodeStringE, i64 0, i32 0, i64 2), ptr %res, align 8
  %fUnion2.i = getelementptr inbounds i8, ptr %res, i64 8
  store i16 2, ptr %fUnion2.i, align 8
  %call7 = invoke noundef nonnull align 8 dereferenceable(64) ptr @_ZN6icu_7513UnicodeString5setToEPDsii(ptr noundef nonnull align 8 dereferenceable(64) %res, ptr noundef nonnull %result, i32 noundef 0, i32 noundef %resultLength)
          to label %if.end8 unwind label %lpad

lpad:                                             ; preds = %if.then26, %if.else, %if.then12, %if.then6
  %1 = landingpad { ptr, i32 }
          cleanup
  br label %ehcleanup

if.end8:                                          ; preds = %if.end4.thread, %if.then6
  %2 = icmp eq ptr %fmt, null
  br i1 %2, label %if.else31, label %dynamic_cast.end

dynamic_cast.end:                                 ; preds = %if.end8
  %3 = call ptr @__dynamic_cast(ptr nonnull %fmt, ptr nonnull @_ZTIN6icu_7510DateFormatE, ptr nonnull @_ZTIN6icu_7516SimpleDateFormatE, i64 0) #7
  %cmp9.not = icmp eq ptr %3, null
  %tobool21.not20 = icmp eq i8 %localized, 0
  br i1 %cmp9.not, label %if.else20.thread, label %if.then10

if.then10:                                        ; preds = %dynamic_cast.end
  %vtable15 = load ptr, ptr %3, align 8
  br i1 %tobool21.not20, label %if.else, label %if.then12

if.then12:                                        ; preds = %if.then10
  %vfn = getelementptr inbounds i8, ptr %vtable15, i64 248
  %4 = load ptr, ptr %vfn, align 8
  %call14 = invoke noundef nonnull align 8 dereferenceable(64) ptr %4(ptr noundef nonnull align 8 dereferenceable(832) %3, ptr noundef nonnull align 8 dereferenceable(64) %res, ptr noundef nonnull align 4 dereferenceable(4) %status)
          to label %if.end33 unwind label %lpad

if.else:                                          ; preds = %if.then10
  %vfn16 = getelementptr inbounds i8, ptr %vtable15, i64 240
  %5 = load ptr, ptr %vfn16, align 8
  %call18 = invoke noundef nonnull align 8 dereferenceable(64) ptr %5(ptr noundef nonnull align 8 dereferenceable(832) %3, ptr noundef nonnull align 8 dereferenceable(64) %res)
          to label %if.end33 unwind label %lpad

if.else20.thread:                                 ; preds = %dynamic_cast.end
  br i1 %tobool21.not20, label %dynamic_cast.end24, label %if.else31

dynamic_cast.end24:                               ; preds = %if.else20.thread
  %6 = call ptr @__dynamic_cast(ptr nonnull %fmt, ptr nonnull @_ZTIN6icu_7510DateFormatE, ptr nonnull @_ZTIN6icu_7518RelativeDateFormatE, i64 0) #7
  %cmp25.not = icmp eq ptr %6, null
  br i1 %cmp25.not, label %if.else31, label %if.then26

if.then26:                                        ; preds = %dynamic_cast.end24
  %vtable27 = load ptr, ptr %6, align 8
  %vfn28 = getelementptr inbounds i8, ptr %vtable27, i64 232
  %7 = load ptr, ptr %vfn28, align 8
  %call30 = invoke noundef nonnull align 8 dereferenceable(64) ptr %7(ptr noundef nonnull align 8 dereferenceable(760) %6, ptr noundef nonnull align 8 dereferenceable(64) %res, ptr noundef nonnull align 4 dereferenceable(4) %status)
          to label %if.end33 unwind label %lpad

if.else31:                                        ; preds = %if.end8, %if.else20.thread, %dynamic_cast.end24
  store i32 1, ptr %status, align 4
  br label %cleanup

if.end33:                                         ; preds = %if.then26, %if.then12, %if.else
  store ptr %result, ptr %agg.tmp, align 8
  %call37 = invoke noundef i32 @_ZNK6icu_7513UnicodeString7extractENS_9Char16PtrEiR10UErrorCode(ptr noundef nonnull align 8 dereferenceable(64) %res, ptr noundef nonnull %agg.tmp, i32 noundef %resultLength, ptr noundef nonnull align 4 dereferenceable(4) %status)
          to label %invoke.cont36 unwind label %lpad35

invoke.cont36:                                    ; preds = %if.end33
  %8 = load ptr, ptr %agg.tmp, align 8
  call void asm sideeffect "", "rm,~{memory},~{dirflag},~{fpsr},~{flags}"(ptr %8) #7, !srcloc !5
  br label %cleanup

lpad35:                                           ; preds = %if.end33
  %9 = landingpad { ptr, i32 }
          cleanup
  %10 = load ptr, ptr %agg.tmp, align 8
  call void asm sideeffect "", "rm,~{memory},~{dirflag},~{fpsr},~{flags}"(ptr %10) #7, !srcloc !5
  br label %ehcleanup

cleanup:                                          ; preds = %invoke.cont36, %if.else31
  %retval.0 = phi i32 [ %call37, %invoke.cont36 ], [ -1, %if.else31 ]
  call void @_ZN6icu_7513UnicodeStringD1Ev(ptr noundef nonnull align 8 dereferenceable(64) %res) #7
  br label %return

ehcleanup:                                        ; preds = %lpad35, %lpad
  %.pn = phi { ptr, i32 } [ %9, %lpad35 ], [ %1, %lpad ]
  call void @_ZN6icu_7513UnicodeStringD1Ev(ptr noundef nonnull align 8 dereferenceable(64) %res) #7
  resume { ptr, i32 } %.pn

return:                                           ; preds = %entry, %cleanup, %if.then3
  %retval.1 = phi i32 [ -1, %if.then3 ], [ %retval.0, %cleanup ], [ -1, %entry ]
  ret i32 %retval.1
}